#include <math.h>
#include <stdio.h>
#include <stdlib.h>
#include <string.h>

int main()
{
	int n;
    char a[1000][300],b[1000][300];
	scanf("%d",&n);
	int i,j,m;
	for(i=0;i<n;i++)
	{
        scanf("%s",a[i]);
	}
    for(i=0;i<n;i++)
	{
	    for(j=0,m=0;a[i][j];j++)
		{
			if(a[i][j]=='A')
			{
				b[i][m]='T';
				m++;
			}
			if(a[i][j]=='T')
			{
				b[i][m]='A';
				m++;
			}
			if(a[i][j]=='C')
			{
				b[i][m]='G';
				m++;
			}
			if(a[i][j]=='G')
			{
				b[i][m]='C';
				m++;
			}
		}
		b[i][m]='\0';
	}
	for(i=0;i<n;i++)
	{
	    printf("%s\n",b[i]);
    }
	return 0;
}
